target datalayout = "e-m:e-p270:32:32-p271:32:32-p272:64:64-i64:64-i128:128-f80:128-n8:16:32:64-S128"
target triple = "x86_64-pc-linux-gnu"

%struct.Llb_Grp_t_ = type { i32, ptr, ptr, ptr, ptr, ptr, ptr }
%struct.Llb_Man_t_ = type { ptr, ptr, ptr, ptr, ptr, ptr, ptr, ptr, ptr, ptr, ptr, ptr, ptr, ptr, ptr, ptr, ptr }
%struct.Vec_Ptr_t_ = type { i32, i32, ptr }
%struct.Aig_Obj_t_ = type { %union.anon, ptr, ptr, i64, i32, i32, %union.anon.0 }
%union.anon = type { ptr }
%union.anon.0 = type { ptr }
%struct.Vec_Int_t_ = type { i32, i32, ptr }

@.str = private unnamed_addr constant [4 x i8] c"%d \00", align 1
@.str.1 = private unnamed_addr constant [2 x i8] c"\0A\00", align 1
@.str.2 = private unnamed_addr constant [10 x i8] c"Max = %d\0A\00", align 1

; Function Attrs: inlinehint nounwind uwtable
define internal i32 @Abc_MaxInt(i32 noundef %0, i32 noundef %1) #3 {
  %3 = alloca i32, align 4
  %4 = alloca i32, align 4
  store i32 %0, ptr %3, align 4, !tbaa !24
  store i32 %1, ptr %4, align 4, !tbaa !24
  %5 = load i32, ptr %3, align 4, !tbaa !24
  %6 = load i32, ptr %4, align 4, !tbaa !24
  %7 = icmp sgt i32 %5, %6
  br i1 %7, label %8, label %10

8:                                                ; preds = %2
  %9 = load i32, ptr %3, align 4, !tbaa !24
  br label %12

10:                                               ; preds = %2
  %11 = load i32, ptr %4, align 4, !tbaa !24
  br label %12

12:                                               ; preds = %10, %8
  %13 = phi i32 [ %9, %8 ], [ %11, %10 ]
  ret i32 %13
}

; Function Attrs: inlinehint nounwind uwtable
define internal i32 @Vec_IntEntry(ptr noundef %0, i32 noundef %1) #3 {
  %3 = alloca ptr, align 8
  %4 = alloca i32, align 4
  store ptr %0, ptr %3, align 8, !tbaa !67
  store i32 %1, ptr %4, align 4, !tbaa !24
  %5 = load ptr, ptr %3, align 8, !tbaa !67
  %6 = getelementptr inbounds nuw %struct.Vec_Int_t_, ptr %5, i32 0, i32 2
  %7 = load ptr, ptr %6, align 8, !tbaa !75
  %8 = load i32, ptr %4, align 4, !tbaa !24
  %9 = sext i32 %8 to i64
  %10 = getelementptr inbounds i32, ptr %7, i64 %9
  %11 = load i32, ptr %10, align 4, !tbaa !24
  ret i32 %11
}

; Function Attrs: inlinehint nounwind uwtable
define internal ptr @Vec_PtrEntry(ptr noundef %0, i32 noundef %1) #3 {
  %3 = alloca ptr, align 8
  %4 = alloca i32, align 4
  store ptr %0, ptr %3, align 8, !tbaa !25
  store i32 %1, ptr %4, align 4, !tbaa !24
  %5 = load ptr, ptr %3, align 8, !tbaa !25
  %6 = getelementptr inbounds nuw %struct.Vec_Ptr_t_, ptr %5, i32 0, i32 2
  %7 = load ptr, ptr %6, align 8, !tbaa !29
  %8 = load i32, ptr %4, align 4, !tbaa !24
  %9 = sext i32 %8 to i64
  %10 = getelementptr inbounds ptr, ptr %7, i64 %9
  %11 = load ptr, ptr %10, align 8, !tbaa !30
  ret ptr %11
}

; Function Attrs: inlinehint nounwind uwtable
define internal i32 @Vec_PtrSize(ptr noundef %0) #3 {
  %2 = alloca ptr, align 8
  store ptr %0, ptr %2, align 8, !tbaa !25
  %3 = load ptr, ptr %2, align 8, !tbaa !25
  %4 = getelementptr inbounds nuw %struct.Vec_Ptr_t_, ptr %3, i32 0, i32 1
  %5 = load i32, ptr %4, align 4, !tbaa !26
  ret i32 %5
}

; Function Attrs: nounwind uwtable
define void @Llb_ManPrintSpan(ptr noundef %0) #0 {
  %2 = alloca ptr, align 8
  %3 = alloca ptr, align 8
  %4 = alloca ptr, align 8
  %5 = alloca i32, align 4
  %6 = alloca i32, align 4
  %7 = alloca i32, align 4
  %8 = alloca i32, align 4
  store ptr %0, ptr %2, align 8, !tbaa !3
  call void @llvm.lifetime.start.p0(i64 8, ptr %3) #8
  call void @llvm.lifetime.start.p0(i64 8, ptr %4) #8
  call void @llvm.lifetime.start.p0(i64 4, ptr %5) #8
  call void @llvm.lifetime.start.p0(i64 4, ptr %6) #8
  call void @llvm.lifetime.start.p0(i64 4, ptr %7) #8
  store i32 0, ptr %7, align 4, !tbaa !24
  call void @llvm.lifetime.start.p0(i64 4, ptr %8) #8
  store i32 0, ptr %8, align 4, !tbaa !24
  store i32 0, ptr %5, align 4, !tbaa !24
  br label %9

9:                                                ; preds = %162, %1
  %10 = load i32, ptr %5, align 4, !tbaa !24
  %11 = load ptr, ptr %2, align 8, !tbaa !3
  %12 = getelementptr inbounds nuw %struct.Llb_Man_t_, ptr %11, i32 0, i32 8
  %13 = load ptr, ptr %12, align 8, !tbaa !16
  %14 = call i32 @Vec_PtrSize(ptr noundef %13)
  %15 = icmp slt i32 %10, %14
  br i1 %15, label %16, label %22

16:                                               ; preds = %9
  %17 = load ptr, ptr %2, align 8, !tbaa !3
  %18 = getelementptr inbounds nuw %struct.Llb_Man_t_, ptr %17, i32 0, i32 8
  %19 = load ptr, ptr %18, align 8, !tbaa !16
  %20 = load i32, ptr %5, align 4, !tbaa !24
  %21 = call ptr @Vec_PtrEntry(ptr noundef %19, i32 noundef %20)
  store ptr %21, ptr %3, align 8, !tbaa !8
  br label %22

22:                                               ; preds = %16, %9
  %23 = phi i1 [ false, %9 ], [ true, %16 ]
  br i1 %23, label %24, label %165

24:                                               ; preds = %22
  store i32 0, ptr %6, align 4, !tbaa !24
  br label %25

25:                                               ; preds = %54, %24
  %26 = load i32, ptr %6, align 4, !tbaa !24
  %27 = load ptr, ptr %3, align 8, !tbaa !8
  %28 = getelementptr inbounds nuw %struct.Llb_Grp_t_, ptr %27, i32 0, i32 1
  %29 = load ptr, ptr %28, align 8, !tbaa !14
  %30 = call i32 @Vec_PtrSize(ptr noundef %29)
  %31 = icmp slt i32 %26, %30
  br i1 %31, label %32, label %38

32:                                               ; preds = %25
  %33 = load ptr, ptr %3, align 8, !tbaa !8
  %34 = getelementptr inbounds nuw %struct.Llb_Grp_t_, ptr %33, i32 0, i32 1
  %35 = load ptr, ptr %34, align 8, !tbaa !14
  %36 = load i32, ptr %6, align 4, !tbaa !24
  %37 = call ptr @Vec_PtrEntry(ptr noundef %35, i32 noundef %36)
  store ptr %37, ptr %4, align 8, !tbaa !34
  br label %38

38:                                               ; preds = %32, %25
  %39 = phi i1 [ false, %25 ], [ true, %32 ]
  br i1 %39, label %40, label %57

40:                                               ; preds = %38
  %41 = load ptr, ptr %2, align 8, !tbaa !3
  %42 = getelementptr inbounds nuw %struct.Llb_Man_t_, ptr %41, i32 0, i32 11
  %43 = load ptr, ptr %42, align 8, !tbaa !78
  %44 = load ptr, ptr %4, align 8, !tbaa !34
  %45 = getelementptr inbounds nuw %struct.Aig_Obj_t_, ptr %44, i32 0, i32 5
  %46 = load i32, ptr %45, align 4, !tbaa !79
  %47 = call i32 @Vec_IntEntry(ptr noundef %43, i32 noundef %46)
  %48 = load i32, ptr %5, align 4, !tbaa !24
  %49 = icmp eq i32 %47, %48
  br i1 %49, label %50, label %53

50:                                               ; preds = %40
  %51 = load i32, ptr %7, align 4, !tbaa !24
  %52 = add nsw i32 %51, 1
  store i32 %52, ptr %7, align 4, !tbaa !24
  br label %53

53:                                               ; preds = %50, %40
  br label %54

54:                                               ; preds = %53
  %55 = load i32, ptr %6, align 4, !tbaa !24
  %56 = add nsw i32 %55, 1
  store i32 %56, ptr %6, align 4, !tbaa !24
  br label %25, !llvm.loop !80

57:                                               ; preds = %38
  store i32 0, ptr %6, align 4, !tbaa !24
  br label %58

58:                                               ; preds = %87, %57
  %59 = load i32, ptr %6, align 4, !tbaa !24
  %60 = load ptr, ptr %3, align 8, !tbaa !8
  %61 = getelementptr inbounds nuw %struct.Llb_Grp_t_, ptr %60, i32 0, i32 2
  %62 = load ptr, ptr %61, align 8, !tbaa !15
  %63 = call i32 @Vec_PtrSize(ptr noundef %62)
  %64 = icmp slt i32 %59, %63
  br i1 %64, label %65, label %71

65:                                               ; preds = %58
  %66 = load ptr, ptr %3, align 8, !tbaa !8
  %67 = getelementptr inbounds nuw %struct.Llb_Grp_t_, ptr %66, i32 0, i32 2
  %68 = load ptr, ptr %67, align 8, !tbaa !15
  %69 = load i32, ptr %6, align 4, !tbaa !24
  %70 = call ptr @Vec_PtrEntry(ptr noundef %68, i32 noundef %69)
  store ptr %70, ptr %4, align 8, !tbaa !34
  br label %71

71:                                               ; preds = %65, %58
  %72 = phi i1 [ false, %58 ], [ true, %65 ]
  br i1 %72, label %73, label %90

73:                                               ; preds = %71
  %74 = load ptr, ptr %2, align 8, !tbaa !3
  %75 = getelementptr inbounds nuw %struct.Llb_Man_t_, ptr %74, i32 0, i32 11
  %76 = load ptr, ptr %75, align 8, !tbaa !78
  %77 = load ptr, ptr %4, align 8, !tbaa !34
  %78 = getelementptr inbounds nuw %struct.Aig_Obj_t_, ptr %77, i32 0, i32 5
  %79 = load i32, ptr %78, align 4, !tbaa !79
  %80 = call i32 @Vec_IntEntry(ptr noundef %76, i32 noundef %79)
  %81 = load i32, ptr %5, align 4, !tbaa !24
  %82 = icmp eq i32 %80, %81
  br i1 %82, label %83, label %86

83:                                               ; preds = %73
  %84 = load i32, ptr %7, align 4, !tbaa !24
  %85 = add nsw i32 %84, 1
  store i32 %85, ptr %7, align 4, !tbaa !24
  br label %86

86:                                               ; preds = %83, %73
  br label %87

87:                                               ; preds = %86
  %88 = load i32, ptr %6, align 4, !tbaa !24
  %89 = add nsw i32 %88, 1
  store i32 %89, ptr %6, align 4, !tbaa !24
  br label %58, !llvm.loop !81

90:                                               ; preds = %71
  %91 = load i32, ptr %8, align 4, !tbaa !24
  %92 = load i32, ptr %7, align 4, !tbaa !24
  %93 = call i32 @Abc_MaxInt(i32 noundef %91, i32 noundef %92)
  store i32 %93, ptr %8, align 4, !tbaa !24
  %94 = load i32, ptr %7, align 4, !tbaa !24
  %95 = call i32 (ptr, ...) @printf(ptr noundef @.str, i32 noundef %94)
  store i32 0, ptr %6, align 4, !tbaa !24
  br label %96

96:                                               ; preds = %125, %90
  %97 = load i32, ptr %6, align 4, !tbaa !24
  %98 = load ptr, ptr %3, align 8, !tbaa !8
  %99 = getelementptr inbounds nuw %struct.Llb_Grp_t_, ptr %98, i32 0, i32 1
  %100 = load ptr, ptr %99, align 8, !tbaa !14
  %101 = call i32 @Vec_PtrSize(ptr noundef %100)
  %102 = icmp slt i32 %97, %101
  br i1 %102, label %103, label %109

103:                                              ; preds = %96
  %104 = load ptr, ptr %3, align 8, !tbaa !8
  %105 = getelementptr inbounds nuw %struct.Llb_Grp_t_, ptr %104, i32 0, i32 1
  %106 = load ptr, ptr %105, align 8, !tbaa !14
  %107 = load i32, ptr %6, align 4, !tbaa !24
  %108 = call ptr @Vec_PtrEntry(ptr noundef %106, i32 noundef %107)
  store ptr %108, ptr %4, align 8, !tbaa !34
  br label %109

109:                                              ; preds = %103, %96
  %110 = phi i1 [ false, %96 ], [ true, %103 ]
  br i1 %110, label %111, label %128

111:                                              ; preds = %109
  %112 = load ptr, ptr %2, align 8, !tbaa !3
  %113 = getelementptr inbounds nuw %struct.Llb_Man_t_, ptr %112, i32 0, i32 12
  %114 = load ptr, ptr %113, align 8, !tbaa !82
  %115 = load ptr, ptr %4, align 8, !tbaa !34
  %116 = getelementptr inbounds nuw %struct.Aig_Obj_t_, ptr %115, i32 0, i32 5
  %117 = load i32, ptr %116, align 4, !tbaa !79
  %118 = call i32 @Vec_IntEntry(ptr noundef %114, i32 noundef %117)
  %119 = load i32, ptr %5, align 4, !tbaa !24
  %120 = icmp eq i32 %118, %119
  br i1 %120, label %121, label %124

121:                                              ; preds = %111
  %122 = load i32, ptr %7, align 4, !tbaa !24
  %123 = add nsw i32 %122, -1
  store i32 %123, ptr %7, align 4, !tbaa !24
  br label %124

124:                                              ; preds = %121, %111
  br label %125

125:                                              ; preds = %124
  %126 = load i32, ptr %6, align 4, !tbaa !24
  %127 = add nsw i32 %126, 1
  store i32 %127, ptr %6, align 4, !tbaa !24
  br label %96, !llvm.loop !83

128:                                              ; preds = %109
  store i32 0, ptr %6, align 4, !tbaa !24
  br label %129

129:                                              ; preds = %158, %128
  %130 = load i32, ptr %6, align 4, !tbaa !24
  %131 = load ptr, ptr %3, align 8, !tbaa !8
  %132 = getelementptr inbounds nuw %struct.Llb_Grp_t_, ptr %131, i32 0, i32 2
  %133 = load ptr, ptr %132, align 8, !tbaa !15
  %134 = call i32 @Vec_PtrSize(ptr noundef %133)
  %135 = icmp slt i32 %130, %134
  br i1 %135, label %136, label %142

136:                                              ; preds = %129
  %137 = load ptr, ptr %3, align 8, !tbaa !8
  %138 = getelementptr inbounds nuw %struct.Llb_Grp_t_, ptr %137, i32 0, i32 2
  %139 = load ptr, ptr %138, align 8, !tbaa !15
  %140 = load i32, ptr %6, align 4, !tbaa !24
  %141 = call ptr @Vec_PtrEntry(ptr noundef %139, i32 noundef %140)
  store ptr %141, ptr %4, align 8, !tbaa !34
  br label %142

142:                                              ; preds = %136, %129
  %143 = phi i1 [ false, %129 ], [ true, %136 ]
  br i1 %143, label %144, label %161

144:                                              ; preds = %142
  %145 = load ptr, ptr %2, align 8, !tbaa !3
  %146 = getelementptr inbounds nuw %struct.Llb_Man_t_, ptr %145, i32 0, i32 12
  %147 = load ptr, ptr %146, align 8, !tbaa !82
  %148 = load ptr, ptr %4, align 8, !tbaa !34
  %149 = getelementptr inbounds nuw %struct.Aig_Obj_t_, ptr %148, i32 0, i32 5
  %150 = load i32, ptr %149, align 4, !tbaa !79
  %151 = call i32 @Vec_IntEntry(ptr noundef %147, i32 noundef %150)
  %152 = load i32, ptr %5, align 4, !tbaa !24
  %153 = icmp eq i32 %151, %152
  br i1 %153, label %154, label %157

154:                                              ; preds = %144
  %155 = load i32, ptr %7, align 4, !tbaa !24
  %156 = add nsw i32 %155, -1
  store i32 %156, ptr %7, align 4, !tbaa !24
  br label %157

157:                                              ; preds = %154, %144
  br label %158

158:                                              ; preds = %157
  %159 = load i32, ptr %6, align 4, !tbaa !24
  %160 = add nsw i32 %159, 1
  store i32 %160, ptr %6, align 4, !tbaa !24
  br label %129, !llvm.loop !84

161:                                              ; preds = %142
  br label %162

162:                                              ; preds = %161
  %163 = load i32, ptr %5, align 4, !tbaa !24
  %164 = add nsw i32 %163, 1
  store i32 %164, ptr %5, align 4, !tbaa !24
  br label %9, !llvm.loop !85

165:                                              ; preds = %22
  %166 = call i32 (ptr, ...) @printf(ptr noundef @.str.1)
  %167 = load i32, ptr %8, align 4, !tbaa !24
  %168 = call i32 (ptr, ...) @printf(ptr noundef @.str.2, i32 noundef %167)
  call void @llvm.lifetime.end.p0(i64 4, ptr %8) #8
  call void @llvm.lifetime.end.p0(i64 4, ptr %7) #8
  call void @llvm.lifetime.end.p0(i64 4, ptr %6) #8
  call void @llvm.lifetime.end.p0(i64 4, ptr %5) #8
  call void @llvm.lifetime.end.p0(i64 8, ptr %4) #8
  call void @llvm.lifetime.end.p0(i64 8, ptr %3) #8
  ret void
}