; Function Attrs: nofree nounwind uwtable
define void @Llb_ManPrintSpan(ptr noundef readonly captures(none) %0) local_unnamed_addr #6 {
  %2 = getelementptr inbounds nuw i8, ptr %0, i64 64
  %3 = load ptr, ptr %2, align 8, !tbaa !18
  %4 = getelementptr i8, ptr %3, i64 4
  %.val6489 = load i32, ptr %4, align 4, !tbaa !12
  %5 = icmp sgt i32 %.val6489, 0
  br i1 %5, label %.lr.ph93, label %.critedge

.lr.ph93:                                         ; preds = %1
  %6 = getelementptr inbounds nuw i8, ptr %0, i64 88
  %7 = getelementptr inbounds nuw i8, ptr %0, i64 96
  br label %8

8:                                                ; preds = %.lr.ph93, %.critedge8
  %indvars.iv111 = phi i64 [ 0, %.lr.ph93 ], [ %indvars.iv.next112, %.critedge8 ]
  %9 = phi ptr [ %3, %.lr.ph93 ], [ %83, %.critedge8 ]
  %.092 = phi i32 [ 0, %.lr.ph93 ], [ %48, %.critedge8 ]
  %.05291 = phi i32 [ 0, %.lr.ph93 ], [ %.7.lcssa, %.critedge8 ]
  %10 = getelementptr i8, ptr %9, i64 8
  %.val69 = load ptr, ptr %10, align 8, !tbaa !15
  %11 = getelementptr inbounds nuw ptr, ptr %.val69, i64 %indvars.iv111
  %12 = load ptr, ptr %11, align 8, !tbaa !26
  %13 = getelementptr inbounds nuw i8, ptr %12, i64 8
  %14 = load ptr, ptr %13, align 8, !tbaa !16
  %15 = getelementptr i8, ptr %14, i64 4
  %.val63 = load i32, ptr %15, align 4, !tbaa !12
  %16 = icmp sgt i32 %.val63, 0
  br i1 %16, label %.lr.ph, label %.critedge2.preheader

.lr.ph:                                           ; preds = %8
  %17 = getelementptr i8, ptr %14, i64 8
  %.val68 = load ptr, ptr %17, align 8, !tbaa !15
  %18 = load ptr, ptr %6, align 8, !tbaa !72
  %19 = getelementptr i8, ptr %18, i64 8
  %.val73 = load ptr, ptr %19, align 8, !tbaa !62
  %wide.trip.count = zext nneg i32 %.val63 to i64
  br label %27

.critedge2.preheader:                             ; preds = %27, %8
  %.1.lcssa = phi i32 [ %.05291, %8 ], [ %spec.select, %27 ]
  %20 = getelementptr inbounds nuw i8, ptr %12, i64 16
  %21 = load ptr, ptr %20, align 8, !tbaa !17
  %22 = getelementptr i8, ptr %21, i64 4
  %.val62 = load i32, ptr %22, align 4, !tbaa !12
  %23 = icmp sgt i32 %.val62, 0
  br i1 %23, label %.lr.ph79, label %.critedge4

.lr.ph79:                                         ; preds = %.critedge2.preheader
  %24 = getelementptr i8, ptr %21, i64 8
  %.val67 = load ptr, ptr %24, align 8, !tbaa !15
  %25 = load ptr, ptr %6, align 8, !tbaa !72
  %26 = getelementptr i8, ptr %25, i64 8
  %.val72 = load ptr, ptr %26, align 8, !tbaa !62
  %wide.trip.count99 = zext nneg i32 %.val62 to i64
  br label %.critedge2

27:                                               ; preds = %.lr.ph, %27
  %indvars.iv = phi i64 [ 0, %.lr.ph ], [ %indvars.iv.next, %27 ]
  %.176 = phi i32 [ %.05291, %.lr.ph ], [ %spec.select, %27 ]
  %28 = getelementptr inbounds nuw ptr, ptr %.val68, i64 %indvars.iv
  %29 = load ptr, ptr %28, align 8, !tbaa !26
  %30 = getelementptr inbounds nuw i8, ptr %29, i64 36
  %31 = load i32, ptr %30, align 4, !tbaa !73
  %32 = sext i32 %31 to i64
  %33 = getelementptr inbounds i32, ptr %.val73, i64 %32
  %34 = load i32, ptr %33, align 4, !tbaa !65
  %35 = zext i32 %34 to i64
  %36 = icmp eq i64 %indvars.iv111, %35
  %37 = zext i1 %36 to i32
  %spec.select = add nsw i32 %.176, %37
  %indvars.iv.next = add nuw nsw i64 %indvars.iv, 1
  %exitcond.not = icmp eq i64 %indvars.iv.next, %wide.trip.count
  br i1 %exitcond.not, label %.critedge2.preheader, label %27, !llvm.loop !74

.critedge2:                                       ; preds = %.lr.ph79, %.critedge2
  %indvars.iv96 = phi i64 [ 0, %.lr.ph79 ], [ %indvars.iv.next97, %.critedge2 ]
  %.378 = phi i32 [ %.1.lcssa, %.lr.ph79 ], [ %spec.select58, %.critedge2 ]
  %38 = getelementptr inbounds nuw ptr, ptr %.val67, i64 %indvars.iv96
  %39 = load ptr, ptr %38, align 8, !tbaa !26
  %40 = getelementptr inbounds nuw i8, ptr %39, i64 36
  %41 = load i32, ptr %40, align 4, !tbaa !73
  %42 = sext i32 %41 to i64
  %43 = getelementptr inbounds i32, ptr %.val72, i64 %42
  %44 = load i32, ptr %43, align 4, !tbaa !65
  %45 = zext i32 %44 to i64
  %46 = icmp eq i64 %indvars.iv111, %45
  %47 = zext i1 %46 to i32
  %spec.select58 = add nsw i32 %.378, %47
  %indvars.iv.next97 = add nuw nsw i64 %indvars.iv96, 1
  %exitcond100.not = icmp eq i64 %indvars.iv.next97, %wide.trip.count99
  br i1 %exitcond100.not, label %.critedge4, label %.critedge2, !llvm.loop !75

.critedge4:                                       ; preds = %.critedge2, %.critedge2.preheader
  %.3.lcssa = phi i32 [ %.1.lcssa, %.critedge2.preheader ], [ %spec.select58, %.critedge2 ]
  %48 = tail call noundef i32 @llvm.smax.i32(i32 %.092, i32 %.3.lcssa)
  %49 = tail call i32 (ptr, ...) @printf(ptr noundef nonnull dereferenceable(1) @.str, i32 noundef %.3.lcssa)
  %50 = load ptr, ptr %13, align 8, !tbaa !16
  %51 = getelementptr i8, ptr %50, i64 4
  %.val61 = load i32, ptr %51, align 4, !tbaa !12
  %52 = icmp sgt i32 %.val61, 0
  br i1 %52, label %.lr.ph83, label %.critedge6.preheader

.lr.ph83:                                         ; preds = %.critedge4
  %53 = getelementptr i8, ptr %50, i64 8
  %.val66 = load ptr, ptr %53, align 8, !tbaa !15
  %54 = load ptr, ptr %7, align 8, !tbaa !76
  %55 = getelementptr i8, ptr %54, i64 8
  %.val71 = load ptr, ptr %55, align 8, !tbaa !62
  %wide.trip.count104 = zext nneg i32 %.val61 to i64
  br label %62

.critedge6.preheader:                             ; preds = %62, %.critedge4
  %.5.lcssa = phi i32 [ %.3.lcssa, %.critedge4 ], [ %spec.select59, %62 ]
  %56 = load ptr, ptr %20, align 8, !tbaa !17
  %57 = getelementptr i8, ptr %56, i64 4
  %.val = load i32, ptr %57, align 4, !tbaa !12
  %58 = icmp sgt i32 %.val, 0
  br i1 %58, label %.lr.ph87, label %.critedge8

.lr.ph87:                                         ; preds = %.critedge6.preheader
  %59 = getelementptr i8, ptr %56, i64 8
  %.val65 = load ptr, ptr %59, align 8, !tbaa !15
  %60 = load ptr, ptr %7, align 8, !tbaa !76
  %61 = getelementptr i8, ptr %60, i64 8
  %.val70 = load ptr, ptr %61, align 8, !tbaa !62
  %wide.trip.count109 = zext nneg i32 %.val to i64
  br label %.critedge6

62:                                               ; preds = %.lr.ph83, %62
  %indvars.iv101 = phi i64 [ 0, %.lr.ph83 ], [ %indvars.iv.next102, %62 ]
  %.582 = phi i32 [ %.3.lcssa, %.lr.ph83 ], [ %spec.select59, %62 ]
  %63 = getelementptr inbounds nuw ptr, ptr %.val66, i64 %indvars.iv101
  %64 = load ptr, ptr %63, align 8, !tbaa !26
  %65 = getelementptr inbounds nuw i8, ptr %64, i64 36
  %66 = load i32, ptr %65, align 4, !tbaa !73
  %67 = sext i32 %66 to i64
  %68 = getelementptr inbounds i32, ptr %.val71, i64 %67
  %69 = load i32, ptr %68, align 4, !tbaa !65
  %70 = zext i32 %69 to i64
  %71 = icmp eq i64 %indvars.iv111, %70
  %72 = sext i1 %71 to i32
  %spec.select59 = add nsw i32 %.582, %72
  %indvars.iv.next102 = add nuw nsw i64 %indvars.iv101, 1
  %exitcond105.not = icmp eq i64 %indvars.iv.next102, %wide.trip.count104
  br i1 %exitcond105.not, label %.critedge6.preheader, label %62, !llvm.loop !77

.critedge6:                                       ; preds = %.lr.ph87, %.critedge6
  %indvars.iv106 = phi i64 [ 0, %.lr.ph87 ], [ %indvars.iv.next107, %.critedge6 ]
  %.786 = phi i32 [ %.5.lcssa, %.lr.ph87 ], [ %spec.select60, %.critedge6 ]
  %73 = getelementptr inbounds nuw ptr, ptr %.val65, i64 %indvars.iv106
  %74 = load ptr, ptr %73, align 8, !tbaa !26
  %75 = getelementptr inbounds nuw i8, ptr %74, i64 36
  %76 = load i32, ptr %75, align 4, !tbaa !73
  %77 = sext i32 %76 to i64
  %78 = getelementptr inbounds i32, ptr %.val70, i64 %77
  %79 = load i32, ptr %78, align 4, !tbaa !65
  %80 = zext i32 %79 to i64
  %81 = icmp eq i64 %indvars.iv111, %80
  %82 = sext i1 %81 to i32
  %spec.select60 = add nsw i32 %.786, %82
  %indvars.iv.next107 = add nuw nsw i64 %indvars.iv106, 1
  %exitcond110.not = icmp eq i64 %indvars.iv.next107, %wide.trip.count109
  br i1 %exitcond110.not, label %.critedge8, label %.critedge6, !llvm.loop !78

.critedge8:                                       ; preds = %.critedge6, %.critedge6.preheader
  %.7.lcssa = phi i32 [ %.5.lcssa, %.critedge6.preheader ], [ %spec.select60, %.critedge6 ]
  %indvars.iv.next112 = add nuw nsw i64 %indvars.iv111, 1
  %83 = load ptr, ptr %2, align 8, !tbaa !18
  %84 = getelementptr i8, ptr %83, i64 4
  %.val64 = load i32, ptr %84, align 4, !tbaa !12
  %85 = sext i32 %.val64 to i64
  %86 = icmp slt i64 %indvars.iv.next112, %85
  br i1 %86, label %8, label %.critedge, !llvm.loop !79

.critedge:                                        ; preds = %.critedge8, %1
  %.0.lcssa = phi i32 [ 0, %1 ], [ %48, %.critedge8 ]
  %putchar = tail call i32 @putchar(i32 10)
  %87 = tail call i32 (ptr, ...) @printf(ptr noundef nonnull dereferenceable(1) @.str.2, i32 noundef %.0.lcssa)
  ret void
}